target datalayout = "e-m:e-p270:32:32-p271:32:32-p272:64:64-i64:64-i128:128-f80:128-n8:16:32:64-S128"
target triple = "x86_64-pc-linux-gnu"

%struct.string_int_pair_st = type { ptr, i32 }
%struct.ssl_excert_st = type { i32, ptr, i32, ptr, ptr, ptr, ptr, ptr, i32, ptr, ptr }

@bio_err = external global ptr, align 8
@.str.1 = private unnamed_addr constant [2 x i8] c"\0A\00", align 1
@.str.252 = private unnamed_addr constant [34 x i8] c"Checking cert chain %d:\0ASubject: \00", align 1
@.str.253 = private unnamed_addr constant [9 x i8] c"\09%s: %s\0A\00", align 1
@.str.254 = private unnamed_addr constant [3 x i8] c"OK\00", align 1
@.str.255 = private unnamed_addr constant [7 x i8] c"NOT OK\00", align 1
@.str.256 = private unnamed_addr constant [11 x i8] c"\09Suite B: \00", align 1
@.str.257 = private unnamed_addr constant [4 x i8] c"OK\0A\00", align 1
@.str.258 = private unnamed_addr constant [8 x i8] c"NOT OK\0A\00", align 1
@.str.259 = private unnamed_addr constant [12 x i8] c"not tested\0A\00", align 1

; Function Attrs: nounwind uwtable
define internal void @print_chain_flags(ptr noundef %0, i32 noundef %1) #0 {
  %3 = alloca ptr, align 8
  %4 = alloca i32, align 4
  %5 = alloca ptr, align 8
  store ptr %0, ptr %3, align 8, !tbaa !27
  store i32 %1, ptr %4, align 4, !tbaa !3
  call void @llvm.lifetime.start.p0(i64 8, ptr %5) #10
  store ptr @chain_flags, ptr %5, align 8, !tbaa !59
  br label %6

6:                                                ; preds = %24, %2
  %7 = load ptr, ptr %5, align 8, !tbaa !59
  %8 = getelementptr inbounds nuw %struct.string_int_pair_st, ptr %7, i32 0, i32 0
  %9 = load ptr, ptr %8, align 8, !tbaa !61
  %10 = icmp ne ptr %9, null
  br i1 %10, label %11, label %27

11:                                               ; preds = %6
  %12 = load ptr, ptr @bio_err, align 8, !tbaa !14
  %13 = load ptr, ptr %5, align 8, !tbaa !59
  %14 = getelementptr inbounds nuw %struct.string_int_pair_st, ptr %13, i32 0, i32 0
  %15 = load ptr, ptr %14, align 8, !tbaa !61
  %16 = load i32, ptr %4, align 4, !tbaa !3
  %17 = load ptr, ptr %5, align 8, !tbaa !59
  %18 = getelementptr inbounds nuw %struct.string_int_pair_st, ptr %17, i32 0, i32 1
  %19 = load i32, ptr %18, align 8, !tbaa !63
  %20 = and i32 %16, %19
  %21 = icmp ne i32 %20, 0
  %22 = select i1 %21, ptr @.str.254, ptr @.str.255
  %23 = call i32 (ptr, ptr, ...) @BIO_printf(ptr noundef %12, ptr noundef @.str.253, ptr noundef %15, ptr noundef %22)
  br label %24

24:                                               ; preds = %11
  %25 = load ptr, ptr %5, align 8, !tbaa !59
  %26 = getelementptr inbounds nuw %struct.string_int_pair_st, ptr %25, i32 1
  store ptr %26, ptr %5, align 8, !tbaa !59
  br label %6, !llvm.loop !114

27:                                               ; preds = %6
  %28 = load ptr, ptr @bio_err, align 8, !tbaa !14
  %29 = call i32 (ptr, ptr, ...) @BIO_printf(ptr noundef %28, ptr noundef @.str.256)
  %30 = load ptr, ptr %3, align 8, !tbaa !27
  %31 = call i64 @SSL_ctrl(ptr noundef %30, i32 noundef 99, i64 noundef 0, ptr noundef null)
  %32 = and i64 %31, 196608
  %33 = icmp ne i64 %32, 0
  br i1 %33, label %34, label %41

34:                                               ; preds = %27
  %35 = load ptr, ptr @bio_err, align 8, !tbaa !14
  %36 = load i32, ptr %4, align 4, !tbaa !3
  %37 = and i32 %36, 2048
  %38 = icmp ne i32 %37, 0
  %39 = select i1 %38, ptr @.str.257, ptr @.str.258
  %40 = call i32 @BIO_puts(ptr noundef %35, ptr noundef %39)
  br label %44

41:                                               ; preds = %27
  %42 = load ptr, ptr @bio_err, align 8, !tbaa !14
  %43 = call i32 (ptr, ptr, ...) @BIO_printf(ptr noundef %42, ptr noundef @.str.259)
  br label %44

44:                                               ; preds = %41, %34
  call void @llvm.lifetime.end.p0(i64 8, ptr %5) #10
  ret void
}

; Function Attrs: nounwind uwtable
define internal i32 @set_cert_cb(ptr noundef %0, ptr noundef %1) #0 {
  %3 = alloca i32, align 4
  %4 = alloca ptr, align 8
  %5 = alloca ptr, align 8
  %6 = alloca i32, align 4
  %7 = alloca i32, align 4
  %8 = alloca ptr, align 8
  %9 = alloca i32, align 4
  store ptr %0, ptr %4, align 8, !tbaa !27
  store ptr %1, ptr %5, align 8, !tbaa !57
  call void @llvm.lifetime.start.p0(i64 4, ptr %6) #10
  call void @llvm.lifetime.start.p0(i64 4, ptr %7) #10
  call void @llvm.lifetime.start.p0(i64 8, ptr %8) #10
  %10 = load ptr, ptr %5, align 8, !tbaa !57
  store ptr %10, ptr %8, align 8, !tbaa !68
  %11 = load ptr, ptr %4, align 8, !tbaa !27
  call void @SSL_certs_clear(ptr noundef %11)
  %12 = load ptr, ptr %8, align 8, !tbaa !68
  %13 = icmp eq ptr %12, null
  br i1 %13, label %14, label %15

14:                                               ; preds = %2
  store i32 1, ptr %3, align 4
  store i32 1, ptr %9, align 4
  br label %107

15:                                               ; preds = %2
  br label %16

16:                                               ; preds = %21, %15
  %17 = load ptr, ptr %8, align 8, !tbaa !68
  %18 = getelementptr inbounds nuw %struct.ssl_excert_st, ptr %17, i32 0, i32 9
  %19 = load ptr, ptr %18, align 8, !tbaa !70
  %20 = icmp ne ptr %19, null
  br i1 %20, label %21, label %25

21:                                               ; preds = %16
  %22 = load ptr, ptr %8, align 8, !tbaa !68
  %23 = getelementptr inbounds nuw %struct.ssl_excert_st, ptr %22, i32 0, i32 9
  %24 = load ptr, ptr %23, align 8, !tbaa !70
  store ptr %24, ptr %8, align 8, !tbaa !68
  br label %16, !llvm.loop !72

25:                                               ; preds = %16
  store i32 0, ptr %6, align 4, !tbaa !3
  br label %26

26:                                               ; preds = %102, %25
  %27 = load ptr, ptr %8, align 8, !tbaa !68
  %28 = icmp ne ptr %27, null
  br i1 %28, label %29, label %106

29:                                               ; preds = %26
  %30 = load i32, ptr %6, align 4, !tbaa !3
  %31 = add nsw i32 %30, 1
  store i32 %31, ptr %6, align 4, !tbaa !3
  %32 = load ptr, ptr %4, align 8, !tbaa !27
  %33 = load ptr, ptr %8, align 8, !tbaa !68
  %34 = getelementptr inbounds nuw %struct.ssl_excert_st, ptr %33, i32 0, i32 5
  %35 = load ptr, ptr %34, align 8, !tbaa !73
  %36 = load ptr, ptr %8, align 8, !tbaa !68
  %37 = getelementptr inbounds nuw %struct.ssl_excert_st, ptr %36, i32 0, i32 6
  %38 = load ptr, ptr %37, align 8, !tbaa !74
  %39 = load ptr, ptr %8, align 8, !tbaa !68
  %40 = getelementptr inbounds nuw %struct.ssl_excert_st, ptr %39, i32 0, i32 7
  %41 = load ptr, ptr %40, align 8, !tbaa !75
  %42 = call i32 @SSL_check_chain(ptr noundef %32, ptr noundef %35, ptr noundef %38, ptr noundef %41)
  store i32 %42, ptr %7, align 4, !tbaa !3
  %43 = load ptr, ptr @bio_err, align 8, !tbaa !14
  %44 = load i32, ptr %6, align 4, !tbaa !3
  %45 = call i32 (ptr, ptr, ...) @BIO_printf(ptr noundef %43, ptr noundef @.str.252, i32 noundef %44)
  %46 = load ptr, ptr @bio_err, align 8, !tbaa !14
  %47 = load ptr, ptr %8, align 8, !tbaa !68
  %48 = getelementptr inbounds nuw %struct.ssl_excert_st, ptr %47, i32 0, i32 5
  %49 = load ptr, ptr %48, align 8, !tbaa !73
  %50 = call ptr @X509_get_subject_name(ptr noundef %49)
  %51 = call i64 @get_nameopt()
  %52 = call i32 @X509_NAME_print_ex(ptr noundef %46, ptr noundef %50, i32 noundef 0, i64 noundef %51)
  %53 = load ptr, ptr @bio_err, align 8, !tbaa !14
  %54 = call i32 @BIO_puts(ptr noundef %53, ptr noundef @.str.1)
  %55 = load ptr, ptr %4, align 8, !tbaa !27
  %56 = load i32, ptr %7, align 4, !tbaa !3
  call void @print_chain_flags(ptr noundef %55, i32 noundef %56)
  %57 = load i32, ptr %7, align 4, !tbaa !3
  %58 = and i32 %57, 1
  %59 = icmp ne i32 %58, 0
  br i1 %59, label %60, label %102

60:                                               ; preds = %29
  %61 = load ptr, ptr %4, align 8, !tbaa !27
  %62 = load ptr, ptr %8, align 8, !tbaa !68
  %63 = getelementptr inbounds nuw %struct.ssl_excert_st, ptr %62, i32 0, i32 5
  %64 = load ptr, ptr %63, align 8, !tbaa !73
  %65 = call i32 @SSL_use_certificate(ptr noundef %61, ptr noundef %64)
  %66 = icmp ne i32 %65, 0
  br i1 %66, label %67, label %74

67:                                               ; preds = %60
  %68 = load ptr, ptr %4, align 8, !tbaa !27
  %69 = load ptr, ptr %8, align 8, !tbaa !68
  %70 = getelementptr inbounds nuw %struct.ssl_excert_st, ptr %69, i32 0, i32 6
  %71 = load ptr, ptr %70, align 8, !tbaa !74
  %72 = call i32 @SSL_use_PrivateKey(ptr noundef %68, ptr noundef %71)
  %73 = icmp ne i32 %72, 0
  br i1 %73, label %75, label %74

74:                                               ; preds = %67, %60
  store i32 0, ptr %3, align 4
  store i32 1, ptr %9, align 4
  br label %107

75:                                               ; preds = %67
  %76 = load ptr, ptr %8, align 8, !tbaa !68
  %77 = getelementptr inbounds nuw %struct.ssl_excert_st, ptr %76, i32 0, i32 8
  %78 = load i32, ptr %77, align 8, !tbaa !76
  %79 = icmp ne i32 %78, 0
  br i1 %79, label %80, label %86

80:                                               ; preds = %75
  %81 = load ptr, ptr %4, align 8, !tbaa !27
  %82 = call i64 @SSL_ctrl(ptr noundef %81, i32 noundef 105, i64 noundef 0, ptr noundef null)
  %83 = icmp ne i64 %82, 0
  br i1 %83, label %85, label %84

84:                                               ; preds = %80
  store i32 0, ptr %3, align 4
  store i32 1, ptr %9, align 4
  br label %107

85:                                               ; preds = %80
  br label %101

86:                                               ; preds = %75
  %87 = load ptr, ptr %8, align 8, !tbaa !68
  %88 = getelementptr inbounds nuw %struct.ssl_excert_st, ptr %87, i32 0, i32 7
  %89 = load ptr, ptr %88, align 8, !tbaa !75
  %90 = icmp ne ptr %89, null
  br i1 %90, label %91, label %100

91:                                               ; preds = %86
  %92 = load ptr, ptr %4, align 8, !tbaa !27
  %93 = load ptr, ptr %8, align 8, !tbaa !68
  %94 = getelementptr inbounds nuw %struct.ssl_excert_st, ptr %93, i32 0, i32 7
  %95 = load ptr, ptr %94, align 8, !tbaa !75
  %96 = call i64 @SSL_ctrl(ptr noundef %92, i32 noundef 88, i64 noundef 1, ptr noundef %95)
  %97 = icmp ne i64 %96, 0
  br i1 %97, label %99, label %98

98:                                               ; preds = %91
  store i32 0, ptr %3, align 4
  store i32 1, ptr %9, align 4
  br label %107

99:                                               ; preds = %91
  br label %100

100:                                              ; preds = %99, %86
  br label %101

101:                                              ; preds = %100, %85
  br label %102

102:                                              ; preds = %101, %29
  %103 = load ptr, ptr %8, align 8, !tbaa !68
  %104 = getelementptr inbounds nuw %struct.ssl_excert_st, ptr %103, i32 0, i32 10
  %105 = load ptr, ptr %104, align 8, !tbaa !77
  store ptr %105, ptr %8, align 8, !tbaa !68
  br label %26, !llvm.loop !78

106:                                              ; preds = %26
  store i32 1, ptr %3, align 4
  store i32 1, ptr %9, align 4
  br label %107

107:                                              ; preds = %106, %98, %84, %74, %14
  call void @llvm.lifetime.end.p0(i64 8, ptr %8) #10
  call void @llvm.lifetime.end.p0(i64 4, ptr %7) #10
  call void @llvm.lifetime.end.p0(i64 4, ptr %6) #10
  %108 = load i32, ptr %3, align 4
  ret i32 %108
}