; Function Attrs: nounwind uwtable
define internal range(i32 0, 2) i32 @set_cert_cb(ptr noundef %0, ptr noundef readonly captures(address_is_null) %1) #0 {
  tail call void @SSL_certs_clear(ptr noundef %0) #6
  %3 = icmp eq ptr %1, null
  br i1 %3, label %.loopexit, label %.preheader39

.preheader39:                                     ; preds = %2, %.preheader39
  %.0 = phi ptr [ %5, %.preheader39 ], [ %1, %2 ]
  %4 = getelementptr inbounds nuw i8, ptr %.0, i64 72
  %5 = load ptr, ptr %4, align 8, !tbaa !46
  %.not = icmp eq ptr %5, null
  br i1 %.not, label %.preheader, label %.preheader39, !llvm.loop !51

.preheader:                                       ; preds = %.preheader39, %61
  %.141 = phi ptr [ %63, %61 ], [ %.0, %.preheader39 ]
  %.02740 = phi i32 [ %6, %61 ], [ 0, %.preheader39 ]
  %6 = add nuw nsw i32 %.02740, 1
  %7 = getelementptr inbounds nuw i8, ptr %.141, i64 40
  %8 = load ptr, ptr %7, align 8, !tbaa !52
  %9 = getelementptr inbounds nuw i8, ptr %.141, i64 48
  %10 = load ptr, ptr %9, align 8, !tbaa !53
  %11 = getelementptr inbounds nuw i8, ptr %.141, i64 56
  %12 = load ptr, ptr %11, align 8, !tbaa !54
  %13 = tail call i32 @SSL_check_chain(ptr noundef %0, ptr noundef %8, ptr noundef %10, ptr noundef %12) #6
  %14 = load ptr, ptr @bio_err, align 8, !tbaa !8
  %15 = tail call i32 (ptr, ptr, ...) @BIO_printf(ptr noundef %14, ptr noundef nonnull @.str.252, i32 noundef %6) #6
  %16 = load ptr, ptr @bio_err, align 8, !tbaa !8
  %17 = load ptr, ptr %7, align 8, !tbaa !52
  %18 = tail call ptr @X509_get_subject_name(ptr noundef %17) #6
  %19 = tail call i64 @get_nameopt() #6
  %20 = tail call i32 @X509_NAME_print_ex(ptr noundef %16, ptr noundef %18, i32 noundef 0, i64 noundef %19) #6
  %21 = load ptr, ptr @bio_err, align 8, !tbaa !8
  %22 = tail call i32 @BIO_puts(ptr noundef %21, ptr noundef nonnull @.str.1) #6
  br label %23

23:                                               ; preds = %23, %.preheader
  %24 = phi ptr [ @.str.260, %.preheader ], [ %32, %23 ]
  %.010.i = phi ptr [ @chain_flags, %.preheader ], [ %31, %23 ]
  %25 = load ptr, ptr @bio_err, align 8, !tbaa !8
  %26 = getelementptr inbounds nuw i8, ptr %.010.i, i64 8
  %27 = load i32, ptr %26, align 8, !tbaa !20
  %28 = and i32 %27, %13
  %.not9.i = icmp eq i32 %28, 0
  %29 = select i1 %.not9.i, ptr @.str.255, ptr @.str.254
  %30 = tail call i32 (ptr, ptr, ...) @BIO_printf(ptr noundef %25, ptr noundef nonnull @.str.253, ptr noundef nonnull %24, ptr noundef nonnull %29) #6
  %31 = getelementptr inbounds nuw i8, ptr %.010.i, i64 16
  %32 = load ptr, ptr %31, align 8, !tbaa !16
  %.not.i = icmp eq ptr %32, null
  br i1 %.not.i, label %33, label %23, !llvm.loop !55

33:                                               ; preds = %23
  %34 = load ptr, ptr @bio_err, align 8, !tbaa !8
  %35 = tail call i32 (ptr, ptr, ...) @BIO_printf(ptr noundef %34, ptr noundef nonnull @.str.256) #6
  %36 = tail call i64 @SSL_ctrl(ptr noundef %0, i32 noundef 99, i64 noundef 0, ptr noundef null) #6
  %37 = and i64 %36, 196608
  %.not7.i = icmp eq i64 %37, 0
  %38 = load ptr, ptr @bio_err, align 8, !tbaa !8
  br i1 %.not7.i, label %43, label %39

39:                                               ; preds = %33
  %40 = and i32 %13, 2048
  %.not8.i = icmp eq i32 %40, 0
  %41 = select i1 %.not8.i, ptr @.str.258, ptr @.str.257
  %42 = tail call i32 @BIO_puts(ptr noundef %38, ptr noundef nonnull %41) #6
  br label %print_chain_flags.exit

43:                                               ; preds = %33
  %44 = tail call i32 (ptr, ptr, ...) @BIO_printf(ptr noundef %38, ptr noundef nonnull @.str.259) #6
  br label %print_chain_flags.exit

print_chain_flags.exit:                           ; preds = %39, %43
  %45 = and i32 %13, 1
  %.not32 = icmp eq i32 %45, 0
  br i1 %.not32, label %61, label %46

46:                                               ; preds = %print_chain_flags.exit
  %47 = load ptr, ptr %7, align 8, !tbaa !52
  %48 = tail call i32 @SSL_use_certificate(ptr noundef %0, ptr noundef %47) #6
  %.not33 = icmp eq i32 %48, 0
  br i1 %.not33, label %.loopexit, label %49

49:                                               ; preds = %46
  %50 = load ptr, ptr %9, align 8, !tbaa !53
  %51 = tail call i32 @SSL_use_PrivateKey(ptr noundef %0, ptr noundef %50) #6
  %.not34 = icmp eq i32 %51, 0
  br i1 %.not34, label %.loopexit, label %52

52:                                               ; preds = %49
  %53 = getelementptr inbounds nuw i8, ptr %.141, i64 64
  %54 = load i32, ptr %53, align 8, !tbaa !56
  %.not35 = icmp eq i32 %54, 0
  br i1 %.not35, label %57, label %55

55:                                               ; preds = %52
  %56 = tail call i64 @SSL_ctrl(ptr noundef %0, i32 noundef 105, i64 noundef 0, ptr noundef null) #6
  %.not38 = icmp eq i64 %56, 0
  br i1 %.not38, label %.loopexit, label %61

57:                                               ; preds = %52
  %58 = load ptr, ptr %11, align 8, !tbaa !54
  %.not36 = icmp eq ptr %58, null
  br i1 %.not36, label %61, label %59

59:                                               ; preds = %57
  %60 = tail call i64 @SSL_ctrl(ptr noundef %0, i32 noundef 88, i64 noundef 1, ptr noundef nonnull %58) #6
  %.not37 = icmp eq i64 %60, 0
  br i1 %.not37, label %.loopexit, label %61

61:                                               ; preds = %55, %59, %57, %print_chain_flags.exit
  %62 = getelementptr inbounds nuw i8, ptr %.141, i64 80
  %63 = load ptr, ptr %62, align 8, !tbaa !57
  %.not31 = icmp eq ptr %63, null
  br i1 %.not31, label %.loopexit, label %.preheader, !llvm.loop !58

.loopexit:                                        ; preds = %61, %59, %55, %46, %49, %2
  %.026 = phi i32 [ 1, %2 ], [ 1, %61 ], [ 0, %59 ], [ 0, %55 ], [ 0, %46 ], [ 0, %49 ]
  ret i32 %.026
}